target datalayout = "e-m:e-p270:32:32-p271:32:32-p272:64:64-i64:64-i128:128-f80:128-n8:16:32:64-S128"
target triple = "x86_64-pc-linux-gnu"

%struct.QMetaObject = type { %"struct.QMetaObject::Data" }
%"struct.QMetaObject::Data" = type { %"struct.QMetaObject::SuperData", ptr, ptr, ptr, ptr, ptr, ptr }
%"struct.QMetaObject::SuperData" = type { ptr }
%class.QString = type { %struct.QArrayDataPointer }
%struct.QArrayDataPointer = type { ptr, ptr, i64 }
%class.QDialog = type { %class.QWidget }
%class.QWidget = type { %class.QObject, %class.QPaintDevice.base, ptr }
%class.QObject = type { ptr, %class.QScopedPointer }
%class.QScopedPointer = type { ptr }
%class.QPaintDevice.base = type <{ ptr, i16 }>
%struct._sctp_assoc_info = type { i16, %struct._address, %struct._address, i16, i16, i32, i32, i32, i32, ptr, ptr, i16, i16, i16, i16, i32, i32, i32, i32, [8 x i8], i32, i32, i32, i32, i32, i32, i32, i32, i32, i32, i32, i32, i32, i32, i32, i32, i32, i32, i32, i32, i32, i32, i32, i8, i16, i16, i32, i32, i32, i32, i32, i32, i32, i32, i32, i32, ptr, ptr, ptr, ptr, ptr, ptr, ptr, ptr, ptr, ptr, ptr, ptr, i8, ptr, [256 x i32], [256 x i32], [256 x i32], ptr }
%struct._address = type { i32, i32, ptr, ptr }
%struct._GList = type { ptr, ptr, ptr }
%class.QMessageBox = type { %class.QDialog }
%struct._capture_file = type { ptr, i32, ptr, ptr, i8, i8, i8, i64, i16, i32, i32, i32, ptr, i32, i64, i32, i32, i32, i32, i8, i32, %struct.nstime_t, i32, ptr, ptr, ptr, i8, i8, i32, ptr, i8, i8, i8, i8, i8, i32, i32, i8, ptr, i32, i32, i8, %struct.packet_provider_data, i32, i32, %struct.epan_column_info, ptr, ptr, ptr, %struct.wtap_rec, %struct.Buffer, ptr, i64, i32 }
%struct.nstime_t = type { i64, i32 }
%struct.packet_provider_data = type { ptr, ptr, ptr, ptr, ptr, ptr }
%struct.epan_column_info = type { ptr, i32, ptr, ptr, ptr, %struct.col_expr_t, i8, ptr }
%struct.col_expr_t = type { ptr, ptr }
%struct.wtap_rec = type { i32, i32, i32, %struct.nstime_t, i32, %struct.nstime_t, i8, %union.anon, ptr, i8, %struct.Buffer, %struct.Buffer }
%union.anon = type { %struct.wtap_packet_header }
%struct.wtap_packet_header = type { i32, i32, i32, i32, %union.wtap_pseudo_header }
%union.wtap_pseudo_header = type { %struct.erf_mc_phdr }
%struct.erf_mc_phdr = type { %struct.erf_phdr, [16 x %struct.erf_ehdr], %union.anon.1 }
%struct.erf_phdr = type { i64, i8, i8, i16, i16, i16 }
%struct.erf_ehdr = type { i64 }
%union.anon.1 = type { i32 }
%struct.Buffer = type { ptr, i64, i64, i64 }
%struct._sctp_allassocs_info = type { i32, ptr, i8, ptr }
%struct._frame_data = type <{ i32, i32, i32, i32, i32, [4 x i8], i64, ptr, ptr, ptr, i8, i16, [5 x i8], %struct.nstime_t, %struct.nstime_t, i32, i32 }>
%class.QBasicAtomicInteger = type { %"struct.std::atomic" }
%"struct.std::atomic" = type { %"struct.std::__atomic_base" }
%"struct.std::__atomic_base" = type { i32 }
%class.QFlags.18 = type { i32 }
%struct.QArrayData = type { %class.QBasicAtomicInteger, %class.QFlags.18, i64 }

@.str.1 = private unnamed_addr constant [38 x i8] c"No Association found for this packet.\00", align 1
@_ZN22SCTPAssocAnalyseDialog16staticMetaObjectE = external global %struct.QMetaObject, align 8

; Function Attrs: mustprogress nounwind null_pointer_is_valid sspstrong uwtable
define linkonce_odr noundef i32 @_ZNSt13__atomic_baseIiEmmEv(ptr noundef align 4 dereferenceable_or_null(4) %0) #7 comdat align 2 {
  %2 = alloca ptr, align 8
  %3 = alloca i32, align 4
  %4 = alloca i32, align 4
  store ptr %0, ptr %2, align 8
  %5 = load ptr, ptr %2, align 8
  %6 = getelementptr inbounds nuw %"struct.std::__atomic_base", ptr %5, i32 0, i32 0
  store i32 1, ptr %3, align 4
  %7 = load i32, ptr %3, align 4
  %8 = atomicrmw sub ptr %6, i32 %7 seq_cst, align 4
  %9 = sub i32 %8, %7
  store i32 %9, ptr %4, align 4
  %10 = load i32, ptr %4, align 4
  ret i32 %10
}

; Function Attrs: inlinehint mustprogress nounwind null_pointer_is_valid sspstrong uwtable
define linkonce_odr noundef zeroext i1 @_ZN10QAtomicOpsIiE5derefIiEEbRSt6atomicIT_E(ptr noundef align 4 dereferenceable(4) %0) #1 comdat align 2 {
  %2 = alloca ptr, align 8
  store ptr %0, ptr %2, align 8
  %3 = load ptr, ptr %2, align 8
  %4 = call noundef i32 @_ZNSt13__atomic_baseIiEmmEv(ptr noundef align 4 dereferenceable_or_null(4) %3) #16
  %5 = icmp ne i32 %4, 0
  ret i1 %5
}

; Function Attrs: mustprogress nounwind null_pointer_is_valid sspstrong uwtable
define linkonce_odr noundef zeroext i1 @_ZN19QBasicAtomicIntegerIiE5derefEv(ptr noundef align 4 dereferenceable_or_null(4) %0) #7 comdat align 2 {
  %2 = alloca ptr, align 8
  store ptr %0, ptr %2, align 8
  %3 = load ptr, ptr %2, align 8
  %4 = getelementptr inbounds nuw %class.QBasicAtomicInteger, ptr %3, i32 0, i32 0
  %5 = call noundef zeroext i1 @_ZN10QAtomicOpsIiE5derefIiEEbRSt6atomicIT_E(ptr noundef align 4 dereferenceable(4) %4) #16
  ret i1 %5
}

; Function Attrs: mustprogress nounwind null_pointer_is_valid sspstrong uwtable
define linkonce_odr noundef zeroext i1 @_ZN10QArrayData5derefEv(ptr noundef align 8 dereferenceable_or_null(16) %0) #7 comdat align 2 {
  %2 = alloca ptr, align 8
  store ptr %0, ptr %2, align 8
  %3 = load ptr, ptr %2, align 8
  %4 = getelementptr inbounds nuw %struct.QArrayData, ptr %3, i32 0, i32 0
  %5 = call noundef zeroext i1 @_ZN19QBasicAtomicIntegerIiE5derefEv(ptr noundef align 4 dereferenceable_or_null(4) %4) #16
  ret i1 %5
}

; Function Attrs: mustprogress nounwind null_pointer_is_valid sspstrong uwtable
define linkonce_odr void @_ZN15QTypedArrayDataIDsE10deallocateEP10QArrayData(ptr noundef %0) #7 comdat align 2 {
  %2 = alloca ptr, align 8
  store ptr %0, ptr %2, align 8
  %3 = load ptr, ptr %2, align 8
  call void @_ZN10QArrayData10deallocateEPS_xx(ptr noundef %3, i64 noundef 2, i64 noundef 8) #16
  ret void
}

; Function Attrs: mustprogress nounwind null_pointer_is_valid sspstrong uwtable
define linkonce_odr void @_ZN9QtPrivate12QPodArrayOpsIDsE10destroyAllEv(ptr noundef align 8 dereferenceable_or_null(24) %0) #7 comdat align 2 {
  %2 = alloca ptr, align 8
  store ptr %0, ptr %2, align 8
  ret void
}

; Function Attrs: mustprogress nounwind null_pointer_is_valid sspstrong uwtable
define linkonce_odr noundef ptr @_ZN17QArrayDataPointerIDsEptEv(ptr noundef align 8 dereferenceable_or_null(24) %0) #7 comdat align 2 {
  %2 = alloca ptr, align 8
  store ptr %0, ptr %2, align 8
  %3 = load ptr, ptr %2, align 8
  ret ptr %3
}

; Function Attrs: mustprogress nounwind null_pointer_is_valid sspstrong uwtable
define linkonce_odr noundef zeroext i1 @_ZN17QArrayDataPointerIDsE5derefEv(ptr noundef align 8 dereferenceable_or_null(24) %0) #7 comdat align 2 {
  %2 = alloca ptr, align 8
  store ptr %0, ptr %2, align 8
  %3 = load ptr, ptr %2, align 8
  %4 = getelementptr inbounds nuw %struct.QArrayDataPointer, ptr %3, i32 0, i32 0
  %5 = load ptr, ptr %4, align 8
  %6 = icmp ne ptr %5, null
  br i1 %6, label %7, label %11

7:                                                ; preds = %1
  %8 = getelementptr inbounds nuw %struct.QArrayDataPointer, ptr %3, i32 0, i32 0
  %9 = load ptr, ptr %8, align 8
  %10 = call noundef zeroext i1 @_ZN10QArrayData5derefEv(ptr noundef align 8 dereferenceable_or_null(16) %9) #16
  br label %11

11:                                               ; preds = %7, %1
  %12 = phi i1 [ true, %1 ], [ %10, %7 ]
  ret i1 %12
}

; Function Attrs: mustprogress nounwind null_pointer_is_valid sspstrong uwtable
define linkonce_odr void @_ZN17QArrayDataPointerIDsED2Ev(ptr noundef align 8 dereferenceable_or_null(24) %0) unnamed_addr #7 comdat align 2 {
  %2 = alloca ptr, align 8
  store ptr %0, ptr %2, align 8
  %3 = load ptr, ptr %2, align 8
  %4 = call noundef zeroext i1 @_ZN17QArrayDataPointerIDsE5derefEv(ptr noundef align 8 dereferenceable_or_null(24) %3) #16
  br i1 %4, label %9, label %5

5:                                                ; preds = %1
  %6 = call noundef ptr @_ZN17QArrayDataPointerIDsEptEv(ptr noundef align 8 dereferenceable_or_null(24) %3) #16
  call void @_ZN9QtPrivate12QPodArrayOpsIDsE10destroyAllEv(ptr noundef align 8 dereferenceable_or_null(24) %6) #16
  %7 = getelementptr inbounds nuw %struct.QArrayDataPointer, ptr %3, i32 0, i32 0
  %8 = load ptr, ptr %7, align 8
  call void @_ZN15QTypedArrayDataIDsE10deallocateEP10QArrayData(ptr noundef %8) #16
  br label %9

9:                                                ; preds = %5, %1
  ret void
}

; Function Attrs: inlinehint mustprogress nounwind null_pointer_is_valid sspstrong uwtable
define linkonce_odr void @_ZN7QStringD2Ev(ptr noundef align 8 dereferenceable_or_null(24) %0) unnamed_addr #1 comdat align 2 {
  %2 = alloca ptr, align 8
  store ptr %0, ptr %2, align 8
  %3 = load ptr, ptr %2, align 8
  %4 = getelementptr inbounds nuw %class.QString, ptr %3, i32 0, i32 0
  call void @_ZN17QArrayDataPointerIDsED2Ev(ptr noundef align 8 dereferenceable_or_null(24) %4) #16
  ret void
}

; Function Attrs: inlinehint mustprogress null_pointer_is_valid sspstrong uwtable
define linkonce_odr void @_ZN22SCTPAssocAnalyseDialog2trEPKcS1_i(ptr dead_on_unwind noalias writable sret(%class.QString) align 8 %0, ptr noundef %1, ptr noundef %2, i32 noundef %3) #6 comdat align 2 {
  %5 = alloca ptr, align 8
  %6 = alloca ptr, align 8
  %7 = alloca ptr, align 8
  %8 = alloca i32, align 4
  store ptr %0, ptr %5, align 8
  store ptr %1, ptr %6, align 8
  store ptr %2, ptr %7, align 8
  store i32 %3, ptr %8, align 4
  %9 = load ptr, ptr %6, align 8
  %10 = load ptr, ptr %7, align 8
  %11 = load i32, ptr %8, align 4
  call void @_ZNK11QMetaObject2trEPKcS1_i(ptr dead_on_unwind writable sret(%class.QString) align 8 %0, ptr noundef align 8 dereferenceable_or_null(56) @_ZN22SCTPAssocAnalyseDialog16staticMetaObjectE, ptr noundef %9, ptr noundef %10, i32 noundef %11)
  ret void
}

; Function Attrs: mustprogress null_pointer_is_valid sspstrong uwtable
define noundef ptr @_ZN22SCTPAssocAnalyseDialog18findAssocForPacketEP13_capture_file(ptr noundef %0) #0 align 2 personality ptr @__gxx_personality_v0 {
  %2 = alloca ptr, align 8
  %3 = alloca ptr, align 8
  %4 = alloca ptr, align 8
  %5 = alloca ptr, align 8
  %6 = alloca ptr, align 8
  %7 = alloca ptr, align 8
  %8 = alloca i8, align 1
  %9 = alloca i32, align 4
  %10 = alloca i32, align 4
  %11 = alloca %class.QMessageBox, align 8
  %12 = alloca %class.QString, align 8
  %13 = alloca ptr, align 8
  %14 = alloca i32, align 4
  store ptr %0, ptr %3, align 8
  call void @llvm.lifetime.start.p0(i64 8, ptr %4) #16
  call void @llvm.lifetime.start.p0(i64 8, ptr %5) #16
  call void @llvm.lifetime.start.p0(i64 8, ptr %6) #16
  call void @llvm.lifetime.start.p0(i64 8, ptr %7) #16
  call void @llvm.lifetime.start.p0(i64 1, ptr %8) #16
  store i8 0, ptr %8, align 1
  %15 = load ptr, ptr %3, align 8
  %16 = getelementptr inbounds nuw %struct._capture_file, ptr %15, i32 0, i32 46
  %17 = load ptr, ptr %16, align 8
  store ptr %17, ptr %4, align 8
  %18 = call ptr @sctp_stat_get_info()
  %19 = getelementptr inbounds nuw %struct._sctp_allassocs_info, ptr %18, i32 0, i32 2
  %20 = load i8, ptr %19, align 8, !range !9, !noundef !10
  %21 = trunc i8 %20 to i1
  %22 = zext i1 %21 to i32
  %23 = icmp eq i32 %22, 0
  br i1 %23, label %24, label %27

24:                                               ; preds = %1
  call void @register_tap_listener_sctp_stat()
  %25 = load ptr, ptr %3, align 8
  %26 = call i32 @cf_retap_packets(ptr noundef %25)
  br label %27

27:                                               ; preds = %24, %1
  %28 = call ptr @sctp_stat_get_info()
  %29 = getelementptr inbounds nuw %struct._sctp_allassocs_info, ptr %28, i32 0, i32 1
  %30 = load ptr, ptr %29, align 8
  %31 = call ptr @g_list_first(ptr noundef %30)
  store ptr %31, ptr %5, align 8
  br label %32

32:                                               ; preds = %92, %27
  %33 = load ptr, ptr %5, align 8
  %34 = icmp ne ptr %33, null
  br i1 %34, label %35, label %93

35:                                               ; preds = %32
  %36 = load ptr, ptr %5, align 8
  %37 = icmp ne ptr %36, null
  br i1 %37, label %38, label %42

38:                                               ; preds = %35
  %39 = load ptr, ptr %5, align 8
  %40 = getelementptr inbounds nuw %struct._GList, ptr %39, i32 0, i32 0
  %41 = load ptr, ptr %40, align 8
  br label %43

42:                                               ; preds = %35
  br label %43

43:                                               ; preds = %42, %38
  %44 = phi ptr [ %41, %38 ], [ null, %42 ]
  store ptr %44, ptr %7, align 8
  %45 = load ptr, ptr %7, align 8
  %46 = getelementptr inbounds nuw %struct._sctp_assoc_info, ptr %45, i32 0, i32 59
  %47 = load ptr, ptr %46, align 8
  %48 = call ptr @g_list_first(ptr noundef %47)
  store ptr %48, ptr %6, align 8
  call void @llvm.lifetime.start.p0(i64 4, ptr %9) #16
  br label %49

49:                                               ; preds = %72, %43
  %50 = load ptr, ptr %6, align 8
  %51 = icmp ne ptr %50, null
  br i1 %51, label %52, label %74

52:                                               ; preds = %49
  %53 = load ptr, ptr %6, align 8
  %54 = getelementptr inbounds nuw %struct._GList, ptr %53, i32 0, i32 0
  %55 = load ptr, ptr %54, align 8
  %56 = ptrtoint ptr %55 to i64
  %57 = trunc i64 %56 to i32
  store i32 %57, ptr %9, align 4
  %58 = load i32, ptr %9, align 4
  %59 = load ptr, ptr %4, align 8
  %60 = getelementptr inbounds nuw %struct._frame_data, ptr %59, i32 0, i32 0
  %61 = load i32, ptr %60, align 8
  %62 = icmp eq i32 %58, %61
  br i1 %62, label %63, label %64

63:                                               ; preds = %52
  store i8 1, ptr %8, align 1
  br label %74

64:                                               ; preds = %52
  %65 = load ptr, ptr %6, align 8
  %66 = icmp ne ptr %65, null
  br i1 %66, label %67, label %71

67:                                               ; preds = %64
  %68 = load ptr, ptr %6, align 8
  %69 = getelementptr inbounds nuw %struct._GList, ptr %68, i32 0, i32 1
  %70 = load ptr, ptr %69, align 8
  br label %72

71:                                               ; preds = %64
  br label %72

72:                                               ; preds = %71, %67
  %73 = phi ptr [ %70, %67 ], [ null, %71 ]
  store ptr %73, ptr %6, align 8
  br label %49, !llvm.loop !11

74:                                               ; preds = %63, %49
  %75 = load i8, ptr %8, align 1, !range !9, !noundef !10
  %76 = trunc i8 %75 to i1
  br i1 %76, label %77, label %79

77:                                               ; preds = %74
  %78 = load ptr, ptr %7, align 8
  store ptr %78, ptr %2, align 8
  store i32 1, ptr %10, align 4
  br label %90

79:                                               ; preds = %74
  %80 = load ptr, ptr %5, align 8
  %81 = icmp ne ptr %80, null
  br i1 %81, label %82, label %86

82:                                               ; preds = %79
  %83 = load ptr, ptr %5, align 8
  %84 = getelementptr inbounds nuw %struct._GList, ptr %83, i32 0, i32 1
  %85 = load ptr, ptr %84, align 8
  br label %87

86:                                               ; preds = %79
  br label %87

87:                                               ; preds = %86, %82
  %88 = phi ptr [ %85, %82 ], [ null, %86 ]
  store ptr %88, ptr %5, align 8
  br label %89

89:                                               ; preds = %87
  store i32 0, ptr %10, align 4
  br label %90

90:                                               ; preds = %89, %77
  call void @llvm.lifetime.end.p0(i64 4, ptr %9) #16
  %91 = load i32, ptr %10, align 4
  switch i32 %91, label %116 [
    i32 0, label %92
  ]

92:                                               ; preds = %90
  br label %32, !llvm.loop !12

93:                                               ; preds = %32
  %94 = load i8, ptr %8, align 1, !range !9, !noundef !10
  %95 = trunc i8 %94 to i1
  br i1 %95, label %115, label %96

96:                                               ; preds = %93
  call void @llvm.lifetime.start.p0(i64 40, ptr %11) #16
  call void @_ZN11QMessageBoxC1EP7QWidget(ptr noundef align 8 dereferenceable_or_null(40) %11, ptr noundef null)
  call void @llvm.lifetime.start.p0(i64 24, ptr %12) #16
  invoke void @_ZN22SCTPAssocAnalyseDialog2trEPKcS1_i(ptr dead_on_unwind writable sret(%class.QString) align 8 %12, ptr noundef @.str.1, ptr noundef null, i32 noundef -1)
          to label %97 unwind label %101

97:                                               ; preds = %96
  invoke void @_ZN11QMessageBox7setTextERK7QString(ptr noundef align 8 dereferenceable_or_null(40) %11, ptr noundef align 8 dereferenceable(24) %12)
          to label %98 unwind label %105

98:                                               ; preds = %97
  call void @_ZN7QStringD2Ev(ptr noundef align 8 dereferenceable_or_null(24) %12) #16
  call void @llvm.lifetime.end.p0(i64 24, ptr %12) #16
  %99 = invoke noundef i32 @_ZN7QDialog4execEv(ptr noundef align 8 dereferenceable_or_null(40) %11)
          to label %100 unwind label %110

100:                                              ; preds = %98
  call void @_ZN11QMessageBoxD1Ev(ptr noundef align 8 dereferenceable_or_null(40) %11) #16
  call void @llvm.lifetime.end.p0(i64 40, ptr %11) #16
  br label %115

101:                                              ; preds = %96
  %102 = landingpad { ptr, i32 }
          cleanup
  %103 = extractvalue { ptr, i32 } %102, 0
  store ptr %103, ptr %13, align 8
  %104 = extractvalue { ptr, i32 } %102, 1
  store i32 %104, ptr %14, align 4
  br label %109

105:                                              ; preds = %97
  %106 = landingpad { ptr, i32 }
          cleanup
  %107 = extractvalue { ptr, i32 } %106, 0
  store ptr %107, ptr %13, align 8
  %108 = extractvalue { ptr, i32 } %106, 1
  store i32 %108, ptr %14, align 4
  call void @_ZN7QStringD2Ev(ptr noundef align 8 dereferenceable_or_null(24) %12) #16
  br label %109

109:                                              ; preds = %105, %101
  call void @llvm.lifetime.end.p0(i64 24, ptr %12) #16
  br label %114

110:                                              ; preds = %98
  %111 = landingpad { ptr, i32 }
          cleanup
  %112 = extractvalue { ptr, i32 } %111, 0
  store ptr %112, ptr %13, align 8
  %113 = extractvalue { ptr, i32 } %111, 1
  store i32 %113, ptr %14, align 4
  br label %114

114:                                              ; preds = %110, %109
  call void @_ZN11QMessageBoxD1Ev(ptr noundef align 8 dereferenceable_or_null(40) %11) #16
  call void @llvm.lifetime.end.p0(i64 40, ptr %11) #16
  call void @llvm.lifetime.end.p0(i64 1, ptr %8) #16
  call void @llvm.lifetime.end.p0(i64 8, ptr %7) #16
  call void @llvm.lifetime.end.p0(i64 8, ptr %6) #16
  call void @llvm.lifetime.end.p0(i64 8, ptr %5) #16
  call void @llvm.lifetime.end.p0(i64 8, ptr %4) #16
  br label %118

115:                                              ; preds = %100, %93
  store ptr null, ptr %2, align 8
  store i32 1, ptr %10, align 4
  br label %116

116:                                              ; preds = %115, %90
  call void @llvm.lifetime.end.p0(i64 1, ptr %8) #16
  call void @llvm.lifetime.end.p0(i64 8, ptr %7) #16
  call void @llvm.lifetime.end.p0(i64 8, ptr %6) #16
  call void @llvm.lifetime.end.p0(i64 8, ptr %5) #16
  call void @llvm.lifetime.end.p0(i64 8, ptr %4) #16
  %117 = load ptr, ptr %2, align 8
  ret ptr %117

118:                                              ; preds = %114
  %119 = load ptr, ptr %13, align 8
  %120 = load i32, ptr %14, align 4
  %121 = insertvalue { ptr, i32 } poison, ptr %119, 0
  %122 = insertvalue { ptr, i32 } %121, i32 %120, 1
  resume { ptr, i32 } %122
}