; Function Attrs: mustprogress null_pointer_is_valid sspstrong uwtable
define noundef ptr @_ZN22SCTPAssocAnalyseDialog18findAssocForPacketEP13_capture_file(ptr noundef %0) local_unnamed_addr #0 align 2 personality ptr @__gxx_personality_v0 {
  %2 = alloca %class.QMessageBox, align 8
  %3 = alloca %class.QString, align 8
  %4 = getelementptr inbounds nuw i8, ptr %0, i64 352
  %5 = load ptr, ptr %4, align 8
  %6 = tail call ptr @sctp_stat_get_info()
  %7 = getelementptr inbounds nuw i8, ptr %6, i64 16
  %8 = load i8, ptr %7, align 8, !range !18, !noundef !19
  %9 = icmp eq i8 %8, 0
  br i1 %9, label %10, label %12

10:                                               ; preds = %1
  tail call void @register_tap_listener_sctp_stat()
  %11 = tail call i32 @cf_retap_packets(ptr noundef %0)
  br label %12

12:                                               ; preds = %10, %1
  %13 = tail call ptr @sctp_stat_get_info()
  %14 = getelementptr inbounds nuw i8, ptr %13, i64 8
  %15 = load ptr, ptr %14, align 8
  %16 = tail call ptr @g_list_first(ptr noundef %15)
  %.not46 = icmp eq ptr %16, null
  br i1 %.not46, label %._crit_edge50, label %.lr.ph49

.lr.ph49:                                         ; preds = %12, %._crit_edge
  %.02747 = phi ptr [ %31, %._crit_edge ], [ %16, %12 ]
  %17 = load ptr, ptr %.02747, align 8
  %18 = getelementptr inbounds nuw i8, ptr %17, i64 296
  %19 = load ptr, ptr %18, align 8
  %20 = tail call ptr @g_list_first(ptr noundef %19)
  %.not3344 = icmp eq ptr %20, null
  br i1 %.not3344, label %._crit_edge, label %.lr.ph

.lr.ph:                                           ; preds = %.lr.ph49
  %21 = load i32, ptr %5, align 8
  br label %22

22:                                               ; preds = %.lr.ph, %27
  %.02945 = phi ptr [ %20, %.lr.ph ], [ %29, %27 ]
  %23 = load ptr, ptr %.02945, align 8
  %24 = ptrtoint ptr %23 to i64
  %25 = trunc i64 %24 to i32
  %26 = icmp eq i32 %21, %25
  br i1 %26, label %.thread40, label %27

27:                                               ; preds = %22
  %28 = getelementptr inbounds nuw i8, ptr %.02945, i64 8
  %29 = load ptr, ptr %28, align 8
  %.not33 = icmp eq ptr %29, null
  br i1 %.not33, label %._crit_edge, label %22, !llvm.loop !20

._crit_edge:                                      ; preds = %27, %.lr.ph49
  %30 = getelementptr inbounds nuw i8, ptr %.02747, i64 8
  %31 = load ptr, ptr %30, align 8
  %.not = icmp eq ptr %31, null
  br i1 %.not, label %._crit_edge50, label %.lr.ph49

._crit_edge50:                                    ; preds = %._crit_edge, %12
  call void @llvm.lifetime.start.p0(i64 40, ptr nonnull %2) #12
  call void @_ZN11QMessageBoxC1EP7QWidget(ptr noundef nonnull align 8 dereferenceable_or_null(40) %2, ptr noundef null)
  call void @llvm.lifetime.start.p0(i64 24, ptr nonnull %3) #12
  invoke void @_ZNK11QMetaObject2trEPKcS1_i(ptr dead_on_unwind nonnull writable sret(%class.QString) align 8 %3, ptr noundef nonnull align 8 dereferenceable_or_null(56) @_ZN22SCTPAssocAnalyseDialog16staticMetaObjectE, ptr noundef nonnull @.str.1, ptr noundef null, i32 noundef -1)
          to label %_ZN22SCTPAssocAnalyseDialog2trEPKcS1_i.exit unwind label %39

_ZN22SCTPAssocAnalyseDialog2trEPKcS1_i.exit:      ; preds = %._crit_edge50
  invoke void @_ZN11QMessageBox7setTextERK7QString(ptr noundef nonnull align 8 dereferenceable_or_null(40) %2, ptr noundef nonnull align 8 dereferenceable(24) %3)
          to label %32 unwind label %41

32:                                               ; preds = %_ZN22SCTPAssocAnalyseDialog2trEPKcS1_i.exit
  %33 = load ptr, ptr %3, align 8
  %.not.i.i.i = icmp eq ptr %33, null
  br i1 %.not.i.i.i, label %_ZN7QStringD2Ev.exit, label %_ZN17QArrayDataPointerIDsE5derefEv.exit.i.i

_ZN17QArrayDataPointerIDsE5derefEv.exit.i.i:      ; preds = %32
  %34 = atomicrmw sub ptr %33, i32 1 seq_cst, align 4
  %.not.i.i = icmp eq i32 %34, 1
  br i1 %.not.i.i, label %35, label %_ZN7QStringD2Ev.exit

35:                                               ; preds = %_ZN17QArrayDataPointerIDsE5derefEv.exit.i.i
  %36 = load ptr, ptr %3, align 8
  call void @_ZN10QArrayData10deallocateEPS_xx(ptr noundef %36, i64 noundef 2, i64 noundef 8) #12
  br label %_ZN7QStringD2Ev.exit

_ZN7QStringD2Ev.exit:                             ; preds = %32, %_ZN17QArrayDataPointerIDsE5derefEv.exit.i.i, %35
  call void @llvm.lifetime.end.p0(i64 24, ptr nonnull %3) #12
  %37 = invoke noundef i32 @_ZN7QDialog4execEv(ptr noundef nonnull align 8 dereferenceable_or_null(40) %2)
          to label %38 unwind label %47

38:                                               ; preds = %_ZN7QStringD2Ev.exit
  call void @_ZN11QMessageBoxD1Ev(ptr noundef nonnull align 8 dereferenceable_or_null(40) %2) #12
  call void @llvm.lifetime.end.p0(i64 40, ptr nonnull %2) #12
  br label %.thread40

39:                                               ; preds = %._crit_edge50
  %40 = landingpad { ptr, i32 }
          cleanup
  br label %_ZN7QStringD2Ev.exit37

41:                                               ; preds = %_ZN22SCTPAssocAnalyseDialog2trEPKcS1_i.exit
  %42 = landingpad { ptr, i32 }
          cleanup
  %43 = load ptr, ptr %3, align 8
  %.not.i.i.i34 = icmp eq ptr %43, null
  br i1 %.not.i.i.i34, label %_ZN7QStringD2Ev.exit37, label %_ZN17QArrayDataPointerIDsE5derefEv.exit.i.i35

_ZN17QArrayDataPointerIDsE5derefEv.exit.i.i35:    ; preds = %41
  %44 = atomicrmw sub ptr %43, i32 1 seq_cst, align 4
  %.not.i.i36 = icmp eq i32 %44, 1
  br i1 %.not.i.i36, label %45, label %_ZN7QStringD2Ev.exit37

45:                                               ; preds = %_ZN17QArrayDataPointerIDsE5derefEv.exit.i.i35
  %46 = load ptr, ptr %3, align 8
  call void @_ZN10QArrayData10deallocateEPS_xx(ptr noundef %46, i64 noundef 2, i64 noundef 8) #12
  br label %_ZN7QStringD2Ev.exit37

_ZN7QStringD2Ev.exit37:                           ; preds = %45, %_ZN17QArrayDataPointerIDsE5derefEv.exit.i.i35, %41, %39
  %.pn = phi { ptr, i32 } [ %40, %39 ], [ %42, %41 ], [ %42, %_ZN17QArrayDataPointerIDsE5derefEv.exit.i.i35 ], [ %42, %45 ]
  call void @llvm.lifetime.end.p0(i64 24, ptr nonnull %3) #12
  br label %49

47:                                               ; preds = %_ZN7QStringD2Ev.exit
  %48 = landingpad { ptr, i32 }
          cleanup
  br label %49

49:                                               ; preds = %47, %_ZN7QStringD2Ev.exit37
  %.pn31 = phi { ptr, i32 } [ %48, %47 ], [ %.pn, %_ZN7QStringD2Ev.exit37 ]
  call void @_ZN11QMessageBoxD1Ev(ptr noundef nonnull align 8 dereferenceable_or_null(40) %2) #12
  call void @llvm.lifetime.end.p0(i64 40, ptr nonnull %2) #12
  resume { ptr, i32 } %.pn31

.thread40:                                        ; preds = %22, %38
  %.2 = phi ptr [ null, %38 ], [ %17, %22 ]
  ret ptr %.2
}